Certificate:
    Data:
        Version: 3 (0x2)
        Serial Number:
            7a:52:27:dd:3d:7a:92:56:fb:9c:de:69:85:09:91:db
        Signature Algorithm: sha256WithRSAEncryption
        Issuer: CN=ca.chat.example.com
        Validity
            Not Before: Feb 17 15:57:20 2021 GMT
            Not After : May 23 15:57:20 2023 GMT
        Subject: CN=login.chat.example.com
        Subject Public Key Info:
            Public Key Algorithm: rsaEncryption
                RSA Public-Key: (2048 bit)
                Modulus:
                    00:c6:e3:43:33:f4:f3:23:c4:1d:93:7e:f9:59:6d:
                    c9:73:d1:e7:eb:63:3a:e0:76:f3:f4:80:8b:74:42:
                    b3:32:31:78:07:50:d6:fb:80:66:eb:1d:b9:fc:e1:
                    c1:01:66:b0:ac:e1:84:31:9f:11:dc:4b:a3:43:08:
                    0a:aa:e7:4a:62:f1:3e:d3:7f:43:47:d7:2c:d0:92:
                    32:94:24:ae:f1:54:9f:5c:78:67:28:f2:86:56:d2:
                    7b:21:ad:87:b0:49:e8:de:77:67:5b:58:71:ad:f5:
                    46:18:f6:74:54:6d:61:16:f0:54:de:a0:1f:22:31:
                    31:79:b6:af:ca:1c:00:b7:47:21:1e:91:04:40:dd:
                    d4:8c:dd:4c:b9:4e:69:f7:7a:6a:f1:09:25:e2:ea:
                    f8:dd:4a:15:b2:19:be:2c:77:87:72:83:d8:e9:87:
                    ac:41:b1:92:f4:bf:d0:df:72:91:6c:91:d0:e1:5e:
                    bb:93:32:c4:e1:86:16:77:f3:9a:d0:e3:17:58:1b:
                    9b:b0:1c:86:2d:c5:35:77:03:60:89:52:d9:3d:44:
                    42:a0:c4:d7:77:37:64:81:69:ed:68:f4:c4:f2:a1:
                    c4:88:35:72:60:a0:dc:99:e5:83:c5:b4:1a:df:c5:
                    ef:ff:51:a5:6a:f7:2d:e9:9d:23:5c:9b:f9:0b:94:
                    31:f3
                Exponent: 65537 (0x10001)
        X509v3 extensions:
            X509v3 Basic Constraints: 
                CA:FALSE
            X509v3 Subject Key Identifier: 
                A8:1D:FE:D8:35:68:23:8B:66:8D:EB:0D:81:66:D7:CC:EB:9D:3A:B0
            X509v3 Authority Key Identifier: 
                keyid:2A:38:DE:AE:D4:65:6D:31:9B:67:2E:7F:FD:2C:05:07:CB:DE:D8:CB
                DirName:/CN=ca.chat.example.com
                serial:47:A2:73:94:64:EE:75:C6:F9:29:73:4E:A7:8E:EE:7A:91:15:38:7F

            X509v3 Extended Key Usage: 
                TLS Web Server Authentication
            X509v3 Key Usage: 
                Digital Signature, Key Encipherment
            X509v3 Subject Alternative Name: 
                DNS:login.chat.example.com
    Signature Algorithm: sha256WithRSAEncryption
         6e:ed:75:d4:5e:e2:18:0f:2c:2e:64:44:e2:19:6d:b8:d8:bb:
         62:fc:21:ed:c9:35:a2:ff:af:c7:20:88:af:42:40:d4:02:fe:
         9e:5f:ef:f7:37:6d:c4:4a:c6:d4:4c:ca:dc:74:e9:cd:a4:03:
         ec:45:69:f7:74:19:76:0d:da:ef:ff:27:4b:db:72:31:62:b1:
         c8:05:f1:18:30:17:f1:64:91:23:79:c7:aa:62:d4:45:bc:6d:
         ff:b0:88:2b:fd:20:6e:dd:de:d2:67:17:ec:cf:2a:fb:56:e6:
         18:da:a3:a4:04:81:dc:88:8d:12:60:84:fc:a6:eb:fe:6b:92:
         dd:9c:86:b2:96:82:9f:22:e1:07:f7:eb:6a:ea:ff:75:d3:99:
         63:45:b6:82:2e:23:28:07:c6:9d:aa:54:0e:52:48:c3:03:30:
         15:c8:64:04:c4:ab:7e:a0:07:8f:ec:c1:ee:eb:d7:b8:95:c2:
         68:5c:1c:87:ca:11:18:92:c9:41:bb:df:19:65:e1:9c:bf:47:
         2e:c5:8f:c5:14:1d:f1:16:51:12:3a:63:cf:be:49:ab:42:6a:
         9a:15:43:ba:1e:65:3c:e5:db:e0:a1:fd:6a:9a:7e:e5:93:fc:
         a1:a0:0b:4e:c3:aa:88:bb:1f:10:5d:27:bb:64:81:88:5a:69:
         ed:64:d7:6e
-----BEGIN CERTIFICATE-----
MIIDlzCCAn+gAwIBAgIQelIn3T16klb7nN5phQmR2zANBgkqhkiG9w0BAQsFADAe
MRwwGgYDVQQDDBNjYS5jaGF0LmV4YW1wbGUuY29tMB4XDTIxMDIxNzE1NTcyMFoX
DTIzMDUyMzE1NTcyMFowITEfMB0GA1UEAwwWbG9naW4uY2hhdC5leGFtcGxlLmNv
bTCCASIwDQYJKoZIhvcNAQEBBQADggEPADCCAQoCggEBAMbjQzP08yPEHZN++Vlt
yXPR5+tjOuB28/SAi3RCszIxeAdQ1vuAZusdufzhwQFmsKzhhDGfEdxLo0MICqrn
SmLxPtN/Q0fXLNCSMpQkrvFUn1x4ZyjyhlbSeyGth7BJ6N53Z1tYca31Rhj2dFRt
YRbwVN6gHyIxMXm2r8ocALdHIR6RBEDd1IzdTLlOafd6avEJJeLq+N1KFbIZvix3
h3KD2OmHrEGxkvS/0N9ykWyR0OFeu5MyxOGGFnfzmtDjF1gbm7Achi3FNXcDYIlS
2T1EQqDE13c3ZIFp7Wj0xPKhxIg1cmCg3Jnlg8W0Gt/F7/9RpWr3LemdI1yb+QuU
MfMCAwEAAaOBzTCByjAJBgNVHRMEAjAAMB0GA1UdDgQWBBSoHf7YNWgji2aN6w2B
ZtfM6506sDBZBgNVHSMEUjBQgBQqON6u1GVtMZtnLn/9LAUHy97Yy6EipCAwHjEc
MBoGA1UEAwwTY2EuY2hhdC5leGFtcGxlLmNvbYIUR6JzlGTudcb5KXNOp47uepEV
OH8wEwYDVR0lBAwwCgYIKwYBBQUHAwEwCwYDVR0PBAQDAgWgMCEGA1UdEQQaMBiC
FmxvZ2luLmNoYXQuZXhhbXBsZS5jb20wDQYJKoZIhvcNAQELBQADggEBAG7tddRe
4hgPLC5kROIZbbjYu2L8Ie3JNaL/r8cgiK9CQNQC/p5f7/c3bcRKxtRMytx06c2k
A+xFafd0GXYN2u//J0vbcjFiscgF8RgwF/FkkSN5x6pi1EW8bf+wiCv9IG7d3tJn
F+zPKvtW5hjao6QEgdyIjRJghPym6/5rkt2chrKWgp8i4Qf362rq/3XTmWNFtoIu
IygHxp2qVA5SSMMDMBXIZATEq36gB4/swe7r17iVwmhcHIfKERiSyUG73xll4Zy/
Ry7Fj8UUHfEWURI6Y8++SatCapoVQ7oeZTzl2+Ch/WqafuWT/KGgC07Dqoi7HxBd
J7tkgYhaae1k124=
-----END CERTIFICATE-----
